; Function Attrs: nofree nounwind uwtable
define i32 @Kit_TruthFindVarNum(ptr noundef readonly captures(none) %0) local_unnamed_addr #12 {
  %2 = tail call i64 @strlen(ptr noundef nonnull dereferenceable(1) %0) #24
  %3 = trunc i64 %2 to i32
  %4 = icmp sgt i32 %3, 0
  br i1 %4, label %.lr.ph.preheader, label %.loopexit

.lr.ph.preheader:                                 ; preds = %1
  %wide.trip.count = and i64 %2, 2147483647
  br label %.lr.ph

5:                                                ; preds = %.lr.ph
  %indvars.iv.next = add nuw nsw i64 %indvars.iv, 1
  %exitcond.not = icmp eq i64 %indvars.iv.next, %wide.trip.count
  br i1 %exitcond.not, label %.loopexit, label %.lr.ph, !llvm.loop !26

.lr.ph:                                           ; preds = %.lr.ph.preheader, %5
  %indvars.iv = phi i64 [ 0, %.lr.ph.preheader ], [ %indvars.iv.next, %5 ]
  %6 = getelementptr inbounds nuw i8, ptr %0, i64 %indvars.iv
  %7 = load i8, ptr %6, align 1, !tbaa !15
  %8 = add i8 %7, -48
  %or.cond = icmp ult i8 %8, 10
  br i1 %or.cond, label %9, label %5

9:                                                ; preds = %.lr.ph
  %10 = getelementptr inbounds nuw i8, ptr %0, i64 %indvars.iv
  %11 = tail call i64 @strtol(ptr noundef nonnull captures(none) %10, ptr noundef null, i32 noundef 10) #21
  %12 = trunc i64 %11 to i32
  br label %.loopexit

.loopexit:                                        ; preds = %5, %1, %9
  %.09 = phi i32 [ %12, %9 ], [ -1, %1 ], [ -1, %5 ]
  ret i32 %.09
}